target datalayout = "e-m:e-p270:32:32-p271:32:32-p272:64:64-i64:64-i128:128-f80:128-n8:16:32:64-S128"
target triple = "x86_64-pc-linux-gnu"

%"class.double_conversion::DoubleToStringConverter" = type { i32, ptr, ptr, i8, i32, i32, i32, i32, i32 }
%"class.double_conversion::StringBuilder" = type { %"class.double_conversion::Vector", i32, [4 x i8] }
%"class.double_conversion::Vector" = type <{ ptr, i32, [4 x i8] }>

; Function Attrs: mustprogress nounwind uwtable
define linkonce_odr noundef nonnull align 1 dereferenceable(1) ptr @_ZNK17double_conversion6VectorIcEixEi(ptr noundef nonnull align 8 dereferenceable(12) %0, i32 noundef %1) #3 comdat align 2 {
  %3 = alloca ptr, align 8
  %4 = alloca i32, align 4
  store ptr %0, ptr %3, align 8, !tbaa !57
  store i32 %1, ptr %4, align 4, !tbaa !3
  %5 = load ptr, ptr %3, align 8
  %6 = getelementptr inbounds nuw %"class.double_conversion::Vector", ptr %5, i32 0, i32 0
  %7 = load ptr, ptr %6, align 8, !tbaa !59
  %8 = load i32, ptr %4, align 4, !tbaa !3
  %9 = sext i32 %8 to i64
  %10 = getelementptr inbounds i8, ptr %7, i64 %9
  ret ptr %10
}

; Function Attrs: inlinehint mustprogress nounwind uwtable
define linkonce_odr noundef nonnull align 4 dereferenceable(4) ptr @_ZSt3minIiERKT_S2_S2_(ptr noundef nonnull align 4 dereferenceable(4) %0, ptr noundef nonnull align 4 dereferenceable(4) %1) #4 comdat {
  %3 = alloca ptr, align 8
  %4 = alloca ptr, align 8
  %5 = alloca ptr, align 8
  store ptr %0, ptr %4, align 8, !tbaa !40
  store ptr %1, ptr %5, align 8, !tbaa !40
  %6 = load ptr, ptr %5, align 8, !tbaa !40
  %7 = load i32, ptr %6, align 4, !tbaa !3
  %8 = load ptr, ptr %4, align 8, !tbaa !40
  %9 = load i32, ptr %8, align 4, !tbaa !3
  %10 = icmp slt i32 %7, %9
  br i1 %10, label %11, label %13

11:                                               ; preds = %2
  %12 = load ptr, ptr %5, align 8, !tbaa !40
  store ptr %12, ptr %3, align 8
  br label %15

13:                                               ; preds = %2
  %14 = load ptr, ptr %4, align 8, !tbaa !40
  store ptr %14, ptr %3, align 8
  br label %15

15:                                               ; preds = %13, %11
  %16 = load ptr, ptr %3, align 8
  ret ptr %16
}

; Function Attrs: mustprogress uwtable
define linkonce_odr void @_ZN17double_conversion13StringBuilder12AddSubstringEPKci(ptr noundef nonnull align 8 dereferenceable(20) %0, ptr noundef %1, i32 noundef %2) #0 comdat align 2 {
  %4 = alloca ptr, align 8
  %5 = alloca ptr, align 8
  %6 = alloca i32, align 4
  store ptr %0, ptr %4, align 8, !tbaa !26
  store ptr %1, ptr %5, align 8, !tbaa !11
  store i32 %2, ptr %6, align 4, !tbaa !3
  %7 = load ptr, ptr %4, align 8
  %8 = getelementptr inbounds nuw %"class.double_conversion::StringBuilder", ptr %7, i32 0, i32 0
  %9 = getelementptr inbounds nuw %"class.double_conversion::StringBuilder", ptr %7, i32 0, i32 1
  %10 = load i32, ptr %9, align 8, !tbaa !34
  %11 = call noundef nonnull align 1 dereferenceable(1) ptr @_ZNK17double_conversion6VectorIcEixEi(ptr noundef nonnull align 8 dereferenceable(12) %8, i32 noundef %10)
  %12 = load ptr, ptr %5, align 8, !tbaa !11
  %13 = load i32, ptr %6, align 4, !tbaa !3
  %14 = sext i32 %13 to i64
  call void @llvm.memmove.p0.p0.i64(ptr align 1 %11, ptr align 1 %12, i64 %14, i1 false)
  %15 = load i32, ptr %6, align 4, !tbaa !3
  %16 = getelementptr inbounds nuw %"class.double_conversion::StringBuilder", ptr %7, i32 0, i32 1
  %17 = load i32, ptr %16, align 8, !tbaa !34
  %18 = add nsw i32 %17, %15
  store i32 %18, ptr %16, align 8, !tbaa !34
  ret void
}

; Function Attrs: mustprogress uwtable
define linkonce_odr void @_ZN17double_conversion13StringBuilder12AddCharacterEc(ptr noundef nonnull align 8 dereferenceable(20) %0, i8 noundef signext %1) #0 comdat align 2 {
  %3 = alloca ptr, align 8
  %4 = alloca i8, align 1
  store ptr %0, ptr %3, align 8, !tbaa !26
  store i8 %1, ptr %4, align 1, !tbaa !13
  %5 = load ptr, ptr %3, align 8
  %6 = load i8, ptr %4, align 1, !tbaa !13
  %7 = getelementptr inbounds nuw %"class.double_conversion::StringBuilder", ptr %5, i32 0, i32 0
  %8 = getelementptr inbounds nuw %"class.double_conversion::StringBuilder", ptr %5, i32 0, i32 1
  %9 = load i32, ptr %8, align 8, !tbaa !34
  %10 = add nsw i32 %9, 1
  store i32 %10, ptr %8, align 8, !tbaa !34
  %11 = call noundef nonnull align 1 dereferenceable(1) ptr @_ZNK17double_conversion6VectorIcEixEi(ptr noundef nonnull align 8 dereferenceable(12) %7, i32 noundef %9)
  store i8 %6, ptr %11, align 1, !tbaa !13
  ret void
}

; Function Attrs: mustprogress uwtable
define void @_ZNK17double_conversion23DoubleToStringConverter31CreateExponentialRepresentationEPKciiPNS_13StringBuilderE(ptr noundef nonnull align 8 dereferenceable(48) %0, ptr noundef %1, i32 noundef %2, i32 noundef %3, ptr noundef %4) #0 align 2 {
  %6 = alloca ptr, align 8
  %7 = alloca ptr, align 8
  %8 = alloca i32, align 4
  %9 = alloca i32, align 4
  %10 = alloca ptr, align 8
  %11 = alloca i32, align 4
  %12 = alloca [6 x i8], align 1
  %13 = alloca i32, align 4
  store ptr %0, ptr %6, align 8, !tbaa !8
  store ptr %1, ptr %7, align 8, !tbaa !11
  store i32 %2, ptr %8, align 4, !tbaa !3
  store i32 %3, ptr %9, align 4, !tbaa !3
  store ptr %4, ptr %10, align 8, !tbaa !26
  %14 = load ptr, ptr %6, align 8
  %15 = load ptr, ptr %10, align 8, !tbaa !26
  %16 = load ptr, ptr %7, align 8, !tbaa !11
  %17 = getelementptr inbounds i8, ptr %16, i64 0
  %18 = load i8, ptr %17, align 1, !tbaa !13
  call void @_ZN17double_conversion13StringBuilder12AddCharacterEc(ptr noundef nonnull align 8 dereferenceable(20) %15, i8 noundef signext %18)
  %19 = load i32, ptr %8, align 4, !tbaa !3
  %20 = icmp eq i32 %19, 1
  br i1 %20, label %21, label %36

21:                                               ; preds = %5
  %22 = getelementptr inbounds nuw %"class.double_conversion::DoubleToStringConverter", ptr %14, i32 0, i32 0
  %23 = load i32, ptr %22, align 8, !tbaa !14
  %24 = and i32 %23, 32
  %25 = icmp ne i32 %24, 0
  br i1 %25, label %26, label %35

26:                                               ; preds = %21
  %27 = load ptr, ptr %10, align 8, !tbaa !26
  call void @_ZN17double_conversion13StringBuilder12AddCharacterEc(ptr noundef nonnull align 8 dereferenceable(20) %27, i8 noundef signext 46)
  %28 = getelementptr inbounds nuw %"class.double_conversion::DoubleToStringConverter", ptr %14, i32 0, i32 0
  %29 = load i32, ptr %28, align 8, !tbaa !14
  %30 = and i32 %29, 64
  %31 = icmp ne i32 %30, 0
  br i1 %31, label %32, label %34

32:                                               ; preds = %26
  %33 = load ptr, ptr %10, align 8, !tbaa !26
  call void @_ZN17double_conversion13StringBuilder12AddCharacterEc(ptr noundef nonnull align 8 dereferenceable(20) %33, i8 noundef signext 48)
  br label %34

34:                                               ; preds = %32, %26
  br label %35

35:                                               ; preds = %34, %21
  br label %43

36:                                               ; preds = %5
  %37 = load ptr, ptr %10, align 8, !tbaa !26
  call void @_ZN17double_conversion13StringBuilder12AddCharacterEc(ptr noundef nonnull align 8 dereferenceable(20) %37, i8 noundef signext 46)
  %38 = load ptr, ptr %10, align 8, !tbaa !26
  %39 = load ptr, ptr %7, align 8, !tbaa !11
  %40 = getelementptr inbounds i8, ptr %39, i64 1
  %41 = load i32, ptr %8, align 4, !tbaa !3
  %42 = sub nsw i32 %41, 1
  call void @_ZN17double_conversion13StringBuilder12AddSubstringEPKci(ptr noundef nonnull align 8 dereferenceable(20) %38, ptr noundef %40, i32 noundef %42)
  br label %43

43:                                               ; preds = %36, %35
  %44 = load ptr, ptr %10, align 8, !tbaa !26
  %45 = getelementptr inbounds nuw %"class.double_conversion::DoubleToStringConverter", ptr %14, i32 0, i32 3
  %46 = load i8, ptr %45, align 8, !tbaa !18
  call void @_ZN17double_conversion13StringBuilder12AddCharacterEc(ptr noundef nonnull align 8 dereferenceable(20) %44, i8 noundef signext %46)
  %47 = load i32, ptr %9, align 4, !tbaa !3
  %48 = icmp slt i32 %47, 0
  br i1 %48, label %49, label %53

49:                                               ; preds = %43
  %50 = load ptr, ptr %10, align 8, !tbaa !26
  call void @_ZN17double_conversion13StringBuilder12AddCharacterEc(ptr noundef nonnull align 8 dereferenceable(20) %50, i8 noundef signext 45)
  %51 = load i32, ptr %9, align 4, !tbaa !3
  %52 = sub nsw i32 0, %51
  store i32 %52, ptr %9, align 4, !tbaa !3
  br label %61

53:                                               ; preds = %43
  %54 = getelementptr inbounds nuw %"class.double_conversion::DoubleToStringConverter", ptr %14, i32 0, i32 0
  %55 = load i32, ptr %54, align 8, !tbaa !14
  %56 = and i32 %55, 1
  %57 = icmp ne i32 %56, 0
  br i1 %57, label %58, label %60

58:                                               ; preds = %53
  %59 = load ptr, ptr %10, align 8, !tbaa !26
  call void @_ZN17double_conversion13StringBuilder12AddCharacterEc(ptr noundef nonnull align 8 dereferenceable(20) %59, i8 noundef signext 43)
  br label %60

60:                                               ; preds = %58, %53
  br label %61

61:                                               ; preds = %60, %49
  call void @llvm.lifetime.start.p0(i64 4, ptr %11) #2
  store i32 5, ptr %11, align 4, !tbaa !3
  call void @llvm.lifetime.start.p0(i64 6, ptr %12) #2
  %62 = getelementptr inbounds [6 x i8], ptr %12, i64 0, i64 5
  store i8 0, ptr %62, align 1, !tbaa !13
  call void @llvm.lifetime.start.p0(i64 4, ptr %13) #2
  store i32 5, ptr %13, align 4, !tbaa !3
  %63 = load i32, ptr %9, align 4, !tbaa !3
  %64 = icmp eq i32 %63, 0
  br i1 %64, label %65, label %70

65:                                               ; preds = %61
  %66 = load i32, ptr %13, align 4, !tbaa !3
  %67 = add nsw i32 %66, -1
  store i32 %67, ptr %13, align 4, !tbaa !3
  %68 = sext i32 %67 to i64
  %69 = getelementptr inbounds [6 x i8], ptr %12, i64 0, i64 %68
  store i8 48, ptr %69, align 1, !tbaa !13
  br label %86

70:                                               ; preds = %61
  br label %71

71:                                               ; preds = %74, %70
  %72 = load i32, ptr %9, align 4, !tbaa !3
  %73 = icmp sgt i32 %72, 0
  br i1 %73, label %74, label %85

74:                                               ; preds = %71
  %75 = load i32, ptr %9, align 4, !tbaa !3
  %76 = srem i32 %75, 10
  %77 = add nsw i32 48, %76
  %78 = trunc i32 %77 to i8
  %79 = load i32, ptr %13, align 4, !tbaa !3
  %80 = add nsw i32 %79, -1
  store i32 %80, ptr %13, align 4, !tbaa !3
  %81 = sext i32 %80 to i64
  %82 = getelementptr inbounds [6 x i8], ptr %12, i64 0, i64 %81
  store i8 %78, ptr %82, align 1, !tbaa !13
  %83 = load i32, ptr %9, align 4, !tbaa !3
  %84 = sdiv i32 %83, 10
  store i32 %84, ptr %9, align 4, !tbaa !3
  br label %71, !llvm.loop !37

85:                                               ; preds = %71
  br label %86

86:                                               ; preds = %85, %65
  br label %87

87:                                               ; preds = %94, %86
  %88 = load i32, ptr %13, align 4, !tbaa !3
  %89 = sub nsw i32 5, %88
  %90 = getelementptr inbounds nuw %"class.double_conversion::DoubleToStringConverter", ptr %14, i32 0, i32 8
  %91 = call noundef nonnull align 4 dereferenceable(4) ptr @_ZSt3minIiERKT_S2_S2_(ptr noundef nonnull align 4 dereferenceable(4) %90, ptr noundef nonnull align 4 dereferenceable(4) %11)
  %92 = load i32, ptr %91, align 4, !tbaa !3
  %93 = icmp slt i32 %89, %92
  br i1 %93, label %94, label %99

94:                                               ; preds = %87
  %95 = load i32, ptr %13, align 4, !tbaa !3
  %96 = add nsw i32 %95, -1
  store i32 %96, ptr %13, align 4, !tbaa !3
  %97 = sext i32 %96 to i64
  %98 = getelementptr inbounds [6 x i8], ptr %12, i64 0, i64 %97
  store i8 48, ptr %98, align 1, !tbaa !13
  br label %87, !llvm.loop !39

99:                                               ; preds = %87
  %100 = load ptr, ptr %10, align 8, !tbaa !26
  %101 = load i32, ptr %13, align 4, !tbaa !3
  %102 = sext i32 %101 to i64
  %103 = getelementptr inbounds [6 x i8], ptr %12, i64 0, i64 %102
  %104 = load i32, ptr %13, align 4, !tbaa !3
  %105 = sub nsw i32 5, %104
  call void @_ZN17double_conversion13StringBuilder12AddSubstringEPKci(ptr noundef nonnull align 8 dereferenceable(20) %100, ptr noundef %103, i32 noundef %105)
  call void @llvm.lifetime.end.p0(i64 4, ptr %13) #2
  call void @llvm.lifetime.end.p0(i64 6, ptr %12) #2
  call void @llvm.lifetime.end.p0(i64 4, ptr %11) #2
  ret void
}