; Function Attrs: mustprogress nofree norecurse nosync nounwind memory(readwrite, inaccessiblemem: none) uwtable
define void @_ZNK17double_conversion23DoubleToStringConverter31CreateExponentialRepresentationEPKciiPNS_13StringBuilderE(ptr noundef nonnull readonly align 8 captures(none) dereferenceable(48) %0, ptr noundef readonly captures(none) %1, i32 noundef %2, i32 noundef %3, ptr noundef captures(none) %4) local_unnamed_addr #4 align 2 {
  %6 = alloca [6 x i8], align 1
  %7 = load i8, ptr %1, align 1, !tbaa !23
  %8 = getelementptr inbounds nuw i8, ptr %4, i64 16
  %9 = load i32, ptr %8, align 8, !tbaa !19
  %10 = add nsw i32 %9, 1
  store i32 %10, ptr %8, align 8, !tbaa !19
  %11 = load ptr, ptr %4, align 8, !tbaa !22
  %12 = sext i32 %9 to i64
  %13 = getelementptr inbounds i8, ptr %11, i64 %12
  store i8 %7, ptr %13, align 1, !tbaa !23
  %14 = icmp eq i32 %2, 1
  br i1 %14, label %15, label %30

15:                                               ; preds = %5
  %16 = load i32, ptr %0, align 8, !tbaa !4
  %17 = and i32 %16, 32
  %.not = icmp eq i32 %17, 0
  %.pre48 = load i32, ptr %8, align 8, !tbaa !19
  br i1 %.not, label %45, label %18

18:                                               ; preds = %15
  %19 = add nsw i32 %.pre48, 1
  store i32 %19, ptr %8, align 8, !tbaa !19
  %20 = load ptr, ptr %4, align 8, !tbaa !22
  %21 = sext i32 %.pre48 to i64
  %22 = getelementptr inbounds i8, ptr %20, i64 %21
  store i8 46, ptr %22, align 1, !tbaa !23
  %23 = load i32, ptr %0, align 8, !tbaa !4
  %24 = and i32 %23, 64
  %.not31 = icmp eq i32 %24, 0
  %.pre49 = load i32, ptr %8, align 8, !tbaa !19
  br i1 %.not31, label %45, label %25

25:                                               ; preds = %18
  %26 = add nsw i32 %.pre49, 1
  store i32 %26, ptr %8, align 8, !tbaa !19
  %27 = load ptr, ptr %4, align 8, !tbaa !22
  %28 = sext i32 %.pre49 to i64
  %29 = getelementptr inbounds i8, ptr %27, i64 %28
  store i8 48, ptr %29, align 1, !tbaa !23
  %.pre = load i32, ptr %8, align 8, !tbaa !19
  br label %45

30:                                               ; preds = %5
  %31 = load i32, ptr %8, align 8, !tbaa !19
  %32 = add nsw i32 %31, 1
  store i32 %32, ptr %8, align 8, !tbaa !19
  %33 = load ptr, ptr %4, align 8, !tbaa !22
  %34 = sext i32 %31 to i64
  %35 = getelementptr inbounds i8, ptr %33, i64 %34
  store i8 46, ptr %35, align 1, !tbaa !23
  %36 = getelementptr inbounds nuw i8, ptr %1, i64 1
  %37 = add nsw i32 %2, -1
  %38 = load i32, ptr %8, align 8, !tbaa !19
  %39 = load ptr, ptr %4, align 8, !tbaa !22
  %40 = sext i32 %38 to i64
  %41 = getelementptr inbounds i8, ptr %39, i64 %40
  %42 = sext i32 %37 to i64
  tail call void @llvm.memmove.p0.p0.i64(ptr nonnull align 1 %41, ptr nonnull align 1 %36, i64 %42, i1 false)
  %43 = load i32, ptr %8, align 8, !tbaa !19
  %44 = add nsw i32 %43, %37
  br label %45

45:                                               ; preds = %15, %25, %18, %30
  %46 = phi i32 [ %.pre48, %15 ], [ %.pre, %25 ], [ %.pre49, %18 ], [ %44, %30 ]
  %47 = getelementptr inbounds nuw i8, ptr %0, i64 24
  %48 = load i8, ptr %47, align 8, !tbaa !13
  %49 = add nsw i32 %46, 1
  store i32 %49, ptr %8, align 8, !tbaa !19
  %50 = load ptr, ptr %4, align 8, !tbaa !22
  %51 = sext i32 %46 to i64
  %52 = getelementptr inbounds i8, ptr %50, i64 %51
  store i8 %48, ptr %52, align 1, !tbaa !23
  %53 = icmp slt i32 %3, 0
  br i1 %53, label %.thread, label %61

.thread:                                          ; preds = %45
  %54 = load i32, ptr %8, align 8, !tbaa !19
  %55 = add nsw i32 %54, 1
  store i32 %55, ptr %8, align 8, !tbaa !19
  %56 = load ptr, ptr %4, align 8, !tbaa !22
  %57 = sext i32 %54 to i64
  %58 = getelementptr inbounds i8, ptr %56, i64 %57
  store i8 45, ptr %58, align 1, !tbaa !23
  %59 = sub nsw i32 0, %3
  call void @llvm.lifetime.start.p0(i64 6, ptr nonnull %6) #13
  %60 = getelementptr inbounds nuw i8, ptr %6, i64 5
  store i8 0, ptr %60, align 1, !tbaa !23
  br label %.lr.ph.preheader

.lr.ph.preheader:                                 ; preds = %70, %.thread
  %.12634.ph = phi i32 [ %59, %.thread ], [ %3, %70 ]
  br label %.lr.ph

61:                                               ; preds = %45
  %62 = load i32, ptr %0, align 8, !tbaa !4
  %63 = and i32 %62, 1
  %.not32 = icmp eq i32 %63, 0
  br i1 %.not32, label %70, label %64

64:                                               ; preds = %61
  %65 = load i32, ptr %8, align 8, !tbaa !19
  %66 = add nsw i32 %65, 1
  store i32 %66, ptr %8, align 8, !tbaa !19
  %67 = load ptr, ptr %4, align 8, !tbaa !22
  %68 = sext i32 %65 to i64
  %69 = getelementptr inbounds i8, ptr %67, i64 %68
  store i8 43, ptr %69, align 1, !tbaa !23
  br label %70

70:                                               ; preds = %61, %64
  call void @llvm.lifetime.start.p0(i64 6, ptr nonnull %6) #13
  %71 = getelementptr inbounds nuw i8, ptr %6, i64 5
  store i8 0, ptr %71, align 1, !tbaa !23
  %72 = icmp eq i32 %3, 0
  br i1 %72, label %73, label %.lr.ph.preheader

73:                                               ; preds = %70
  %74 = getelementptr inbounds nuw i8, ptr %6, i64 4
  store i8 48, ptr %74, align 1, !tbaa !23
  br label %.loopexit

.lr.ph:                                           ; preds = %.lr.ph.preheader, %.lr.ph
  %indvars.iv = phi i64 [ %indvars.iv.next, %.lr.ph ], [ 5, %.lr.ph.preheader ]
  %.12634 = phi i32 [ %79, %.lr.ph ], [ %.12634.ph, %.lr.ph.preheader ]
  %75 = urem i32 %.12634, 10
  %76 = trunc nuw nsw i32 %75 to i8
  %77 = or disjoint i8 %76, 48
  %indvars.iv.next = add nsw i64 %indvars.iv, -1
  %78 = getelementptr inbounds [6 x i8], ptr %6, i64 0, i64 %indvars.iv.next
  store i8 %77, ptr %78, align 1, !tbaa !23
  %79 = udiv i32 %.12634, 10
  %.not40 = icmp samesign ult i32 %.12634, 10
  br i1 %.not40, label %.loopexit.loopexit, label %.lr.ph, !llvm.loop !24

.loopexit.loopexit:                               ; preds = %.lr.ph
  %80 = trunc nsw i64 %indvars.iv.next to i32
  br label %.loopexit

.loopexit:                                        ; preds = %.loopexit.loopexit, %73
  %.0 = phi i32 [ 4, %73 ], [ %80, %.loopexit.loopexit ]
  %81 = getelementptr inbounds nuw i8, ptr %0, i64 44
  %82 = load i32, ptr %81, align 4, !tbaa !26
  %.sroa.speculated = tail call i32 @llvm.smin.i32(i32 %82, i32 5)
  %83 = sub nsw i32 5, %.0
  %84 = icmp slt i32 %83, %.sroa.speculated
  br i1 %84, label %.lr.ph37.preheader, label %._crit_edge

.lr.ph37.preheader:                               ; preds = %.loopexit
  %85 = add i32 %.0, -1
  %86 = sext i32 %85 to i64
  %87 = add i32 %.0, %.sroa.speculated
  %88 = add i32 %87, -6
  %89 = zext i32 %88 to i64
  %90 = sub nsw i64 %86, %89
  %scevgep = getelementptr i8, ptr %6, i64 %90
  %91 = add nuw nsw i64 %89, 1
  call void @llvm.memset.p0.i64(ptr noundef nonnull align 1 dereferenceable(1) %scevgep, i8 48, i64 %91, i1 false), !tbaa !23
  %92 = sext i32 %.0 to i64
  %93 = sext i32 %.sroa.speculated to i64
  br label %.lr.ph37

.lr.ph37:                                         ; preds = %.lr.ph37.preheader, %.lr.ph37
  %indvars.iv45 = phi i64 [ %92, %.lr.ph37.preheader ], [ %indvars.iv.next46, %.lr.ph37 ]
  %indvars.iv.next46 = add nsw i64 %indvars.iv45, -1
  %94 = sub nsw i64 6, %indvars.iv45
  %95 = icmp slt i64 %94, %93
  br i1 %95, label %.lr.ph37, label %._crit_edge.loopexit, !llvm.loop !27

._crit_edge.loopexit:                             ; preds = %.lr.ph37
  %96 = trunc nsw i64 %94 to i32
  %97 = trunc nsw i64 %indvars.iv.next46 to i32
  br label %._crit_edge

._crit_edge:                                      ; preds = %._crit_edge.loopexit, %.loopexit
  %.2.lcssa = phi i32 [ %.0, %.loopexit ], [ %97, %._crit_edge.loopexit ]
  %.lcssa = phi i32 [ %83, %.loopexit ], [ %96, %._crit_edge.loopexit ]
  %98 = sext i32 %.2.lcssa to i64
  %99 = getelementptr inbounds [6 x i8], ptr %6, i64 0, i64 %98
  %100 = load i32, ptr %8, align 8, !tbaa !19
  %101 = load ptr, ptr %4, align 8, !tbaa !22
  %102 = sext i32 %100 to i64
  %103 = getelementptr inbounds i8, ptr %101, i64 %102
  %104 = sext i32 %.lcssa to i64
  call void @llvm.memcpy.p0.p0.i64(ptr nonnull align 1 %103, ptr nonnull align 1 %99, i64 %104, i1 false)
  %105 = load i32, ptr %8, align 8, !tbaa !19
  %106 = add nsw i32 %105, %.lcssa
  store i32 %106, ptr %8, align 8, !tbaa !19
  call void @llvm.lifetime.end.p0(i64 6, ptr nonnull %6) #13
  ret void
}